target datalayout = "e-m:e-p270:32:32-p271:32:32-p272:64:64-i64:64-i128:128-f80:128-n8:16:32:64-S128"
target triple = "x86_64-pc-linux-gnu"

%struct.mbedtls_ssl_config = type { i32, i32, i8, i8, i8, i8, i8, i8, i8, i8, i8, i8, i16, i8, i8, i8, ptr, i32, ptr, ptr, ptr, ptr, ptr, ptr, ptr, ptr, ptr, ptr, ptr, ptr, ptr, ptr, ptr, ptr, ptr, ptr, ptr, i64, ptr, ptr, ptr, ptr, ptr, ptr, ptr, ptr, %struct.mbedtls_mpi, %struct.mbedtls_mpi, ptr, i64, ptr, i64, ptr, i32, i32, i32, i32, [8 x i8], i32, i32, %union.mbedtls_ssl_user_data_t, ptr, ptr }
%struct.mbedtls_mpi = type { ptr, i16, i16 }
%union.mbedtls_ssl_user_data_t = type { i64 }

; Function Attrs: nounwind uwtable
define hidden i32 @mbedtls_ssl_conf_dh_param_bin(ptr noundef %0, ptr noundef %1, i64 noundef %2, ptr noundef %3, i64 noundef %4) #0 {
  %6 = alloca i32, align 4
  %7 = alloca ptr, align 8
  %8 = alloca ptr, align 8
  %9 = alloca i64, align 8
  %10 = alloca ptr, align 8
  %11 = alloca i64, align 8
  %12 = alloca i32, align 4
  %13 = alloca i32, align 4
  store ptr %0, ptr %7, align 8, !tbaa !3
  store ptr %1, ptr %8, align 8, !tbaa !29
  store i64 %2, ptr %9, align 8, !tbaa !8
  store ptr %3, ptr %10, align 8, !tbaa !29
  store i64 %4, ptr %11, align 8, !tbaa !8
  call void @llvm.lifetime.start.p0(i64 4, ptr %12) #11
  store i32 -110, ptr %12, align 4, !tbaa !10
  %14 = load ptr, ptr %7, align 8, !tbaa !3
  %15 = getelementptr inbounds nuw %struct.mbedtls_ssl_config, ptr %14, i32 0, i32 46
  call void @mbedtls_mpi_free(ptr noundef %15)
  %16 = load ptr, ptr %7, align 8, !tbaa !3
  %17 = getelementptr inbounds nuw %struct.mbedtls_ssl_config, ptr %16, i32 0, i32 47
  call void @mbedtls_mpi_free(ptr noundef %17)
  %18 = load ptr, ptr %7, align 8, !tbaa !3
  %19 = getelementptr inbounds nuw %struct.mbedtls_ssl_config, ptr %18, i32 0, i32 46
  %20 = load ptr, ptr %8, align 8, !tbaa !29
  %21 = load i64, ptr %9, align 8, !tbaa !8
  %22 = call i32 @mbedtls_mpi_read_binary(ptr noundef %19, ptr noundef %20, i64 noundef %21)
  store i32 %22, ptr %12, align 4, !tbaa !10
  %23 = icmp ne i32 %22, 0
  br i1 %23, label %31, label %24

24:                                               ; preds = %5
  %25 = load ptr, ptr %7, align 8, !tbaa !3
  %26 = getelementptr inbounds nuw %struct.mbedtls_ssl_config, ptr %25, i32 0, i32 47
  %27 = load ptr, ptr %10, align 8, !tbaa !29
  %28 = load i64, ptr %11, align 8, !tbaa !8
  %29 = call i32 @mbedtls_mpi_read_binary(ptr noundef %26, ptr noundef %27, i64 noundef %28)
  store i32 %29, ptr %12, align 4, !tbaa !10
  %30 = icmp ne i32 %29, 0
  br i1 %30, label %31, label %37

31:                                               ; preds = %24, %5
  %32 = load ptr, ptr %7, align 8, !tbaa !3
  %33 = getelementptr inbounds nuw %struct.mbedtls_ssl_config, ptr %32, i32 0, i32 46
  call void @mbedtls_mpi_free(ptr noundef %33)
  %34 = load ptr, ptr %7, align 8, !tbaa !3
  %35 = getelementptr inbounds nuw %struct.mbedtls_ssl_config, ptr %34, i32 0, i32 47
  call void @mbedtls_mpi_free(ptr noundef %35)
  %36 = load i32, ptr %12, align 4, !tbaa !10
  store i32 %36, ptr %6, align 4
  store i32 1, ptr %13, align 4
  br label %38

37:                                               ; preds = %24
  store i32 0, ptr %6, align 4
  store i32 1, ptr %13, align 4
  br label %38

38:                                               ; preds = %37, %31
  call void @llvm.lifetime.end.p0(i64 4, ptr %12) #11
  %39 = load i32, ptr %6, align 4
  ret i32 %39
}