; Function Attrs: nounwind uwtable
define hidden i32 @mbedtls_ssl_conf_dh_param_bin(ptr noundef %0, ptr noundef %1, i64 noundef %2, ptr noundef %3, i64 noundef %4) local_unnamed_addr #1 {
  %6 = getelementptr inbounds nuw i8, ptr %0, i64 264
  tail call void @mbedtls_mpi_free(ptr noundef nonnull %6) #26
  %7 = getelementptr inbounds nuw i8, ptr %0, i64 280
  tail call void @mbedtls_mpi_free(ptr noundef nonnull %7) #26
  %8 = tail call i32 @mbedtls_mpi_read_binary(ptr noundef nonnull %6, ptr noundef %1, i64 noundef %2) #26
  %.not = icmp eq i32 %8, 0
  br i1 %.not, label %9, label %11

9:                                                ; preds = %5
  %10 = tail call i32 @mbedtls_mpi_read_binary(ptr noundef nonnull %7, ptr noundef %3, i64 noundef %4) #26
  %.not14 = icmp eq i32 %10, 0
  br i1 %.not14, label %12, label %11

11:                                               ; preds = %9, %5
  %.0 = phi i32 [ %8, %5 ], [ %10, %9 ]
  tail call void @mbedtls_mpi_free(ptr noundef nonnull %6) #26
  tail call void @mbedtls_mpi_free(ptr noundef nonnull %7) #26
  br label %12

12:                                               ; preds = %9, %11
  %.011 = phi i32 [ %.0, %11 ], [ 0, %9 ]
  ret i32 %.011
}